(lp0
S'Cantaloupe 1'
p1
aS'Pear Abate'
p2
aS'Apple Red Delicious'
p3
aS'Apple Red 3'
p4
aS'Cherry Wax Yellow'
p5
aS'Cherry Wax Black'
p6
aS'Clementine'
p7
aS'Pineapple Mini'
p8
aS'Peach'
p9
aS'Strawberry'
p10
aS'Huckleberry'
p11
aS'Kaki'
p12
aS'Grapefruit White'
p13
aS'Apple Golden 3'
p14
aS'Rambutan'
p15
aS'Cherry 2'
p16
aS'Peach Flat'
p17
aS'Apple Red Yellow'
p18
aS'Apple Granny Smith'
p19
aS'Avocado'
p20
aS'Cherry Wax Red'
p21
aS'Physalis with Husk'
p22
aS'Cocos'
p23
aS'Apple Red 1'
p24
aS'Raspberry'
p25
aS'Tamarillo'
p26
aS'Grape Pink'
p27
aS'Cherry Rainier'
p28
aS'Guava'
p29
aS'Grape White'
p30
aS'Orange'
p31
aS'Maracuja'
p32
aS'Apricot'
p33
aS'Pitahaya Red'
p34
aS'Plum'
p35
aS'Strawberry Wedge'
p36
aS'Physalis'
p37
aS'Quince'
p38
aS'Apple Golden 2'
p39
aS'Kumquats'
p40
aS'Banana'
p41
aS'Banana Red'
p42
aS'Salak'
p43
aS'Pear'
p44
aS'Mulberry'
p45
aS'Dates'
p46
aS'Pear Williams'
p47
aS'Limes'
p48
aS'Cactus fruit'
p49
aS'Pomegranate'
p50
aS'Cherry 1'
p51
aS'Mango'
p52
aS'Kiwi'
p53
aS'Tangelo'
p54
aS'Lemon Meyer'
p55
aS'Avocado ripe'
p56
aS'Grape White 2'
p57
aS'Pear Monster'
p58
aS'Apple Red 2'
p59
aS'Lemon'
p60
aS'Cantaloupe 2'
p61
aS'Mandarine'
p62
aS'Granadilla'
p63
aS'Passion Fruit'
p64
aS'Carambula'
p65
aS'Nectarine'
p66
aS'Pineapple'
p67
aS'Melon Piel de Sapo'
p68
aS'Papaya'
p69
aS'Pepino'
p70
aS'Grapefruit Pink'
p71
aS'Walnut'
p72
aS'Apple Golden 1'
p73
aS'Apple Braeburn'
p74
aS'Lychee'
p75
a.